target datalayout = "e-m:e-p270:32:32-p271:32:32-p272:64:64-i64:64-i128:128-f80:128-n8:16:32:64-S128"
target triple = "x86_64-pc-linux-gnu"

%struct.Min_Cube_t_ = type { ptr, i32, [1 x i32] }
%struct.Abc_Obj_t_ = type { ptr, ptr, i32, i32, %struct.Vec_Int_t_, %struct.Vec_Int_t_, %union.anon, %union.anon.0 }
%struct.Vec_Int_t_ = type { i32, i32, ptr }
%union.anon = type { ptr }
%union.anon.0 = type { ptr }
%struct.Abc_Ntk_t_ = type { i32, i32, ptr, ptr, ptr, ptr, ptr, ptr, ptr, ptr, ptr, ptr, ptr, [11 x i32], i32, i32, i32, i32, ptr, i32, ptr, ptr, i32, i32, i32, double, i32, %struct.Vec_Int_t_, ptr, ptr, ptr, ptr, ptr, float, i32, ptr, ptr, ptr, ptr, ptr, ptr, ptr, ptr, ptr, ptr, ptr, ptr, ptr, ptr, ptr, ptr, ptr, ptr, ptr, ptr, ptr, ptr }
%struct.Vec_Ptr_t_ = type { i32, i32, ptr }

; Function Attrs: inlinehint nounwind uwtable
define internal ptr @Vec_PtrEntry(ptr noundef %0, i32 noundef %1) #3 {
  %3 = alloca ptr, align 8
  %4 = alloca i32, align 4
  store ptr %0, ptr %3, align 8, !tbaa !72
  store i32 %1, ptr %4, align 4, !tbaa !14
  %5 = load ptr, ptr %3, align 8, !tbaa !72
  %6 = getelementptr inbounds nuw %struct.Vec_Ptr_t_, ptr %5, i32 0, i32 2
  %7 = load ptr, ptr %6, align 8, !tbaa !53
  %8 = load i32, ptr %4, align 4, !tbaa !14
  %9 = sext i32 %8 to i64
  %10 = getelementptr inbounds ptr, ptr %7, i64 %9
  %11 = load ptr, ptr %10, align 8, !tbaa !56
  ret ptr %11
}

; Function Attrs: inlinehint nounwind uwtable
define internal void @Vec_IntWriteEntry(ptr noundef %0, i32 noundef %1, i32 noundef %2) #3 {
  %4 = alloca ptr, align 8
  %5 = alloca i32, align 4
  %6 = alloca i32, align 4
  store ptr %0, ptr %4, align 8, !tbaa !12
  store i32 %1, ptr %5, align 4, !tbaa !14
  store i32 %2, ptr %6, align 4, !tbaa !14
  %7 = load i32, ptr %6, align 4, !tbaa !14
  %8 = load ptr, ptr %4, align 8, !tbaa !12
  %9 = getelementptr inbounds nuw %struct.Vec_Int_t_, ptr %8, i32 0, i32 2
  %10 = load ptr, ptr %9, align 8, !tbaa !37
  %11 = load i32, ptr %5, align 4, !tbaa !14
  %12 = sext i32 %11 to i64
  %13 = getelementptr inbounds i32, ptr %10, i64 %12
  store i32 %7, ptr %13, align 4, !tbaa !14
  ret void
}

; Function Attrs: inlinehint nounwind uwtable
define internal ptr @Abc_NtkCreateNode(ptr noundef %0) #3 {
  %2 = alloca ptr, align 8
  store ptr %0, ptr %2, align 8, !tbaa !3
  %3 = load ptr, ptr %2, align 8, !tbaa !3
  %4 = call ptr @Abc_NtkCreateObj(ptr noundef %3, i32 noundef 7)
  ret ptr %4
}

; Function Attrs: inlinehint nounwind uwtable
define internal void @Vec_IntFree(ptr noundef %0) #3 {
  %2 = alloca ptr, align 8
  store ptr %0, ptr %2, align 8, !tbaa !12
  %3 = load ptr, ptr %2, align 8, !tbaa !12
  %4 = getelementptr inbounds nuw %struct.Vec_Int_t_, ptr %3, i32 0, i32 2
  %5 = load ptr, ptr %4, align 8, !tbaa !37
  %6 = icmp ne ptr %5, null
  br i1 %6, label %7, label %13

7:                                                ; preds = %1
  %8 = load ptr, ptr %2, align 8, !tbaa !12
  %9 = getelementptr inbounds nuw %struct.Vec_Int_t_, ptr %8, i32 0, i32 2
  %10 = load ptr, ptr %9, align 8, !tbaa !37
  call void @free(ptr noundef %10) #7
  %11 = load ptr, ptr %2, align 8, !tbaa !12
  %12 = getelementptr inbounds nuw %struct.Vec_Int_t_, ptr %11, i32 0, i32 2
  store ptr null, ptr %12, align 8, !tbaa !37
  br label %14

13:                                               ; preds = %1
  br label %14

14:                                               ; preds = %13, %7
  %15 = load ptr, ptr %2, align 8, !tbaa !12
  %16 = icmp ne ptr %15, null
  br i1 %16, label %17, label %19

17:                                               ; preds = %14
  %18 = load ptr, ptr %2, align 8, !tbaa !12
  call void @free(ptr noundef %18) #7
  store ptr null, ptr %2, align 8, !tbaa !12
  br label %20

19:                                               ; preds = %14
  br label %20

20:                                               ; preds = %19, %17
  ret void
}

; Function Attrs: inlinehint nounwind uwtable
define internal i32 @Min_CubeGetVar(ptr noundef %0, i32 noundef %1) #3 {
  %3 = alloca ptr, align 8
  %4 = alloca i32, align 4
  store ptr %0, ptr %3, align 8, !tbaa !10
  store i32 %1, ptr %4, align 4, !tbaa !14
  %5 = load ptr, ptr %3, align 8, !tbaa !10
  %6 = getelementptr inbounds nuw %struct.Min_Cube_t_, ptr %5, i32 0, i32 2
  %7 = load i32, ptr %4, align 4, !tbaa !14
  %8 = mul nsw i32 2, %7
  %9 = ashr i32 %8, 5
  %10 = sext i32 %9 to i64
  %11 = getelementptr inbounds [1 x i32], ptr %6, i64 0, i64 %10
  %12 = load i32, ptr %11, align 4, !tbaa !14
  %13 = load i32, ptr %4, align 4, !tbaa !14
  %14 = mul nsw i32 2, %13
  %15 = and i32 %14, 31
  %16 = lshr i32 %12, %15
  %17 = and i32 3, %16
  ret i32 %17
}

; Function Attrs: inlinehint nounwind uwtable
define internal ptr @Abc_NtkObj(ptr noundef %0, i32 noundef %1) #3 {
  %3 = alloca ptr, align 8
  %4 = alloca i32, align 4
  store ptr %0, ptr %3, align 8, !tbaa !3
  store i32 %1, ptr %4, align 4, !tbaa !14
  %5 = load ptr, ptr %3, align 8, !tbaa !3
  %6 = getelementptr inbounds nuw %struct.Abc_Ntk_t_, ptr %5, i32 0, i32 5
  %7 = load ptr, ptr %6, align 8, !tbaa !41
  %8 = load i32, ptr %4, align 4, !tbaa !14
  %9 = call ptr @Vec_PtrEntry(ptr noundef %7, i32 noundef %8)
  ret ptr %9
}

; Function Attrs: inlinehint nounwind uwtable
define internal i32 @Vec_IntEntry(ptr noundef %0, i32 noundef %1) #3 {
  %3 = alloca ptr, align 8
  %4 = alloca i32, align 4
  store ptr %0, ptr %3, align 8, !tbaa !12
  store i32 %1, ptr %4, align 4, !tbaa !14
  %5 = load ptr, ptr %3, align 8, !tbaa !12
  %6 = getelementptr inbounds nuw %struct.Vec_Int_t_, ptr %5, i32 0, i32 2
  %7 = load ptr, ptr %6, align 8, !tbaa !37
  %8 = load i32, ptr %4, align 4, !tbaa !14
  %9 = sext i32 %8 to i64
  %10 = getelementptr inbounds i32, ptr %7, i64 %9
  %11 = load i32, ptr %10, align 4, !tbaa !14
  ret i32 %11
}

; Function Attrs: inlinehint nounwind uwtable
define internal ptr @Vec_IntAlloc(i32 noundef %0) #3 {
  %2 = alloca i32, align 4
  %3 = alloca ptr, align 8
  store i32 %0, ptr %2, align 4, !tbaa !14
  call void @llvm.lifetime.start.p0(i64 8, ptr %3) #7
  %4 = call noalias ptr @malloc(i64 noundef 16) #8
  store ptr %4, ptr %3, align 8, !tbaa !12
  %5 = load i32, ptr %2, align 4, !tbaa !14
  %6 = icmp sgt i32 %5, 0
  br i1 %6, label %7, label %11

7:                                                ; preds = %1
  %8 = load i32, ptr %2, align 4, !tbaa !14
  %9 = icmp slt i32 %8, 16
  br i1 %9, label %10, label %11

10:                                               ; preds = %7
  store i32 16, ptr %2, align 4, !tbaa !14
  br label %11

11:                                               ; preds = %10, %7, %1
  %12 = load ptr, ptr %3, align 8, !tbaa !12
  %13 = getelementptr inbounds nuw %struct.Vec_Int_t_, ptr %12, i32 0, i32 1
  store i32 0, ptr %13, align 4, !tbaa !21
  %14 = load i32, ptr %2, align 4, !tbaa !14
  %15 = load ptr, ptr %3, align 8, !tbaa !12
  %16 = getelementptr inbounds nuw %struct.Vec_Int_t_, ptr %15, i32 0, i32 0
  store i32 %14, ptr %16, align 8, !tbaa !38
  %17 = load ptr, ptr %3, align 8, !tbaa !12
  %18 = getelementptr inbounds nuw %struct.Vec_Int_t_, ptr %17, i32 0, i32 0
  %19 = load i32, ptr %18, align 8, !tbaa !38
  %20 = icmp ne i32 %19, 0
  br i1 %20, label %21, label %28

21:                                               ; preds = %11
  %22 = load ptr, ptr %3, align 8, !tbaa !12
  %23 = getelementptr inbounds nuw %struct.Vec_Int_t_, ptr %22, i32 0, i32 0
  %24 = load i32, ptr %23, align 8, !tbaa !38
  %25 = sext i32 %24 to i64
  %26 = mul i64 4, %25
  %27 = call noalias ptr @malloc(i64 noundef %26) #8
  br label %29

28:                                               ; preds = %11
  br label %29

29:                                               ; preds = %28, %21
  %30 = phi ptr [ %27, %21 ], [ null, %28 ]
  %31 = load ptr, ptr %3, align 8, !tbaa !12
  %32 = getelementptr inbounds nuw %struct.Vec_Int_t_, ptr %31, i32 0, i32 2
  store ptr %30, ptr %32, align 8, !tbaa !37
  %33 = load ptr, ptr %3, align 8, !tbaa !12
  call void @llvm.lifetime.end.p0(i64 8, ptr %3) #7
  ret ptr %33
}

; Function Attrs: nounwind uwtable
define ptr @Abc_NtkCovDeriveCube(ptr noundef %0, ptr noundef %1, ptr noundef %2, ptr noundef %3, i32 noundef %4) #0 {
  %6 = alloca ptr, align 8
  %7 = alloca ptr, align 8
  %8 = alloca ptr, align 8
  %9 = alloca ptr, align 8
  %10 = alloca ptr, align 8
  %11 = alloca i32, align 4
  %12 = alloca ptr, align 8
  %13 = alloca ptr, align 8
  %14 = alloca ptr, align 8
  %15 = alloca i32, align 4
  %16 = alloca i32, align 4
  %17 = alloca i32, align 4
  %18 = alloca i32, align 4
  store ptr %0, ptr %7, align 8, !tbaa !3
  store ptr %1, ptr %8, align 8, !tbaa !8
  store ptr %2, ptr %9, align 8, !tbaa !10
  store ptr %3, ptr %10, align 8, !tbaa !12
  store i32 %4, ptr %11, align 4, !tbaa !14
  call void @llvm.lifetime.start.p0(i64 8, ptr %12) #7
  call void @llvm.lifetime.start.p0(i64 8, ptr %13) #7
  call void @llvm.lifetime.start.p0(i64 8, ptr %14) #7
  call void @llvm.lifetime.start.p0(i64 4, ptr %15) #7
  call void @llvm.lifetime.start.p0(i64 4, ptr %16) #7
  call void @llvm.lifetime.start.p0(i64 4, ptr %17) #7
  %19 = load ptr, ptr %9, align 8, !tbaa !10
  %20 = getelementptr inbounds nuw %struct.Min_Cube_t_, ptr %19, i32 0, i32 1
  %21 = load i32, ptr %20, align 8
  %22 = lshr i32 %21, 22
  %23 = icmp eq i32 %22, 0
  br i1 %23, label %24, label %33

24:                                               ; preds = %5
  %25 = load i32, ptr %11, align 4, !tbaa !14
  %26 = icmp ne i32 %25, 0
  br i1 %26, label %27, label %30

27:                                               ; preds = %24
  %28 = load ptr, ptr %7, align 8, !tbaa !3
  %29 = call ptr @Abc_NtkCreateNodeConst0(ptr noundef %28)
  store ptr %29, ptr %6, align 8
  store i32 1, ptr %18, align 4
  br label %129

30:                                               ; preds = %24
  %31 = load ptr, ptr %7, align 8, !tbaa !3
  %32 = call ptr @Abc_NtkCreateNodeConst1(ptr noundef %31)
  store ptr %32, ptr %6, align 8
  store i32 1, ptr %18, align 4
  br label %129

33:                                               ; preds = %5
  %34 = call ptr @Vec_IntAlloc(i32 noundef 10)
  store ptr %34, ptr %12, align 8, !tbaa !12
  %35 = load ptr, ptr %9, align 8, !tbaa !10
  %36 = load ptr, ptr %12, align 8, !tbaa !12
  call void @Min_CubeGetLits(ptr noundef %35, ptr noundef %36)
  %37 = load ptr, ptr %9, align 8, !tbaa !10
  %38 = getelementptr inbounds nuw %struct.Min_Cube_t_, ptr %37, i32 0, i32 1
  %39 = load i32, ptr %38, align 8
  %40 = lshr i32 %39, 22
  %41 = icmp eq i32 %40, 1
  br i1 %41, label %42, label %72

42:                                               ; preds = %33
  %43 = load ptr, ptr %12, align 8, !tbaa !12
  %44 = call i32 @Vec_IntEntry(ptr noundef %43, i32 noundef 0)
  store i32 %44, ptr %16, align 4, !tbaa !14
  %45 = load ptr, ptr %8, align 8, !tbaa !8
  %46 = getelementptr inbounds nuw %struct.Abc_Obj_t_, ptr %45, i32 0, i32 0
  %47 = load ptr, ptr %46, align 8, !tbaa !16
  %48 = load ptr, ptr %10, align 8, !tbaa !12
  %49 = load i32, ptr %16, align 4, !tbaa !14
  %50 = call i32 @Vec_IntEntry(ptr noundef %48, i32 noundef %49)
  %51 = call ptr @Abc_NtkObj(ptr noundef %47, i32 noundef %50)
  store ptr %51, ptr %14, align 8, !tbaa !8
  %52 = load ptr, ptr %9, align 8, !tbaa !10
  %53 = load i32, ptr %16, align 4, !tbaa !14
  %54 = call i32 @Min_CubeGetVar(ptr noundef %52, i32 noundef %53)
  store i32 %54, ptr %17, align 4, !tbaa !14
  %55 = load ptr, ptr %12, align 8, !tbaa !12
  call void @Vec_IntFree(ptr noundef %55)
  %56 = load i32, ptr %17, align 4, !tbaa !14
  %57 = icmp eq i32 %56, 1
  %58 = zext i1 %57 to i32
  %59 = load i32, ptr %11, align 4, !tbaa !14
  %60 = xor i32 %58, %59
  %61 = icmp ne i32 %60, 0
  br i1 %61, label %62, label %68

62:                                               ; preds = %42
  %63 = load ptr, ptr %7, align 8, !tbaa !3
  %64 = load ptr, ptr %14, align 8, !tbaa !8
  %65 = getelementptr inbounds nuw %struct.Abc_Obj_t_, ptr %64, i32 0, i32 7
  %66 = load ptr, ptr %65, align 8, !tbaa !20
  %67 = call ptr @Abc_NtkCreateNodeInv(ptr noundef %63, ptr noundef %66)
  store ptr %67, ptr %6, align 8
  store i32 1, ptr %18, align 4
  br label %129

68:                                               ; preds = %42
  %69 = load ptr, ptr %14, align 8, !tbaa !8
  %70 = getelementptr inbounds nuw %struct.Abc_Obj_t_, ptr %69, i32 0, i32 7
  %71 = load ptr, ptr %70, align 8, !tbaa !20
  store ptr %71, ptr %6, align 8
  store i32 1, ptr %18, align 4
  br label %129

72:                                               ; preds = %33
  %73 = load ptr, ptr %7, align 8, !tbaa !3
  %74 = call ptr @Abc_NtkCreateNode(ptr noundef %73)
  store ptr %74, ptr %13, align 8, !tbaa !8
  store i32 0, ptr %15, align 4, !tbaa !14
  br label %75

75:                                               ; preds = %104, %72
  %76 = load i32, ptr %15, align 4, !tbaa !14
  %77 = load ptr, ptr %12, align 8, !tbaa !12
  %78 = getelementptr inbounds nuw %struct.Vec_Int_t_, ptr %77, i32 0, i32 1
  %79 = load i32, ptr %78, align 4, !tbaa !21
  %80 = icmp slt i32 %76, %79
  br i1 %80, label %81, label %107

81:                                               ; preds = %75
  %82 = load ptr, ptr %12, align 8, !tbaa !12
  %83 = load i32, ptr %15, align 4, !tbaa !14
  %84 = call i32 @Vec_IntEntry(ptr noundef %82, i32 noundef %83)
  store i32 %84, ptr %16, align 4, !tbaa !14
  %85 = load ptr, ptr %8, align 8, !tbaa !8
  %86 = getelementptr inbounds nuw %struct.Abc_Obj_t_, ptr %85, i32 0, i32 0
  %87 = load ptr, ptr %86, align 8, !tbaa !16
  %88 = load ptr, ptr %10, align 8, !tbaa !12
  %89 = load i32, ptr %16, align 4, !tbaa !14
  %90 = call i32 @Vec_IntEntry(ptr noundef %88, i32 noundef %89)
  %91 = call ptr @Abc_NtkObj(ptr noundef %87, i32 noundef %90)
  store ptr %91, ptr %14, align 8, !tbaa !8
  %92 = load ptr, ptr %9, align 8, !tbaa !10
  %93 = load i32, ptr %16, align 4, !tbaa !14
  %94 = call i32 @Min_CubeGetVar(ptr noundef %92, i32 noundef %93)
  store i32 %94, ptr %17, align 4, !tbaa !14
  %95 = load ptr, ptr %12, align 8, !tbaa !12
  %96 = load i32, ptr %15, align 4, !tbaa !14
  %97 = load i32, ptr %17, align 4, !tbaa !14
  %98 = icmp eq i32 %97, 1
  %99 = zext i1 %98 to i32
  call void @Vec_IntWriteEntry(ptr noundef %95, i32 noundef %96, i32 noundef %99)
  %100 = load ptr, ptr %13, align 8, !tbaa !8
  %101 = load ptr, ptr %14, align 8, !tbaa !8
  %102 = getelementptr inbounds nuw %struct.Abc_Obj_t_, ptr %101, i32 0, i32 7
  %103 = load ptr, ptr %102, align 8, !tbaa !20
  call void @Abc_ObjAddFanin(ptr noundef %100, ptr noundef %103)
  br label %104

104:                                              ; preds = %81
  %105 = load i32, ptr %15, align 4, !tbaa !14
  %106 = add nsw i32 %105, 1
  store i32 %106, ptr %15, align 4, !tbaa !14
  br label %75, !llvm.loop !22

107:                                              ; preds = %75
  %108 = load ptr, ptr %7, align 8, !tbaa !3
  %109 = getelementptr inbounds nuw %struct.Abc_Ntk_t_, ptr %108, i32 0, i32 30
  %110 = load ptr, ptr %109, align 8, !tbaa !24
  %111 = load ptr, ptr %12, align 8, !tbaa !12
  %112 = getelementptr inbounds nuw %struct.Vec_Int_t_, ptr %111, i32 0, i32 1
  %113 = load i32, ptr %112, align 4, !tbaa !21
  %114 = load ptr, ptr %12, align 8, !tbaa !12
  %115 = getelementptr inbounds nuw %struct.Vec_Int_t_, ptr %114, i32 0, i32 2
  %116 = load ptr, ptr %115, align 8, !tbaa !37
  %117 = call ptr @Abc_SopCreateAnd(ptr noundef %110, i32 noundef %113, ptr noundef %116)
  %118 = load ptr, ptr %13, align 8, !tbaa !8
  %119 = getelementptr inbounds nuw %struct.Abc_Obj_t_, ptr %118, i32 0, i32 6
  store ptr %117, ptr %119, align 8, !tbaa !20
  %120 = load i32, ptr %11, align 4, !tbaa !14
  %121 = icmp ne i32 %120, 0
  br i1 %121, label %122, label %126

122:                                              ; preds = %107
  %123 = load ptr, ptr %13, align 8, !tbaa !8
  %124 = getelementptr inbounds nuw %struct.Abc_Obj_t_, ptr %123, i32 0, i32 6
  %125 = load ptr, ptr %124, align 8, !tbaa !20
  call void @Abc_SopComplement(ptr noundef %125)
  br label %126

126:                                              ; preds = %122, %107
  %127 = load ptr, ptr %12, align 8, !tbaa !12
  call void @Vec_IntFree(ptr noundef %127)
  %128 = load ptr, ptr %13, align 8, !tbaa !8
  store ptr %128, ptr %6, align 8
  store i32 1, ptr %18, align 4
  br label %129

129:                                              ; preds = %126, %68, %62, %30, %27
  call void @llvm.lifetime.end.p0(i64 4, ptr %17) #7
  call void @llvm.lifetime.end.p0(i64 4, ptr %16) #7
  call void @llvm.lifetime.end.p0(i64 4, ptr %15) #7
  call void @llvm.lifetime.end.p0(i64 8, ptr %14) #7
  call void @llvm.lifetime.end.p0(i64 8, ptr %13) #7
  call void @llvm.lifetime.end.p0(i64 8, ptr %12) #7
  %130 = load ptr, ptr %6, align 8
  ret ptr %130
}