; Function Attrs: nounwind uwtable
define ptr @Abc_NtkCovDeriveCube(ptr noundef %0, ptr noundef readonly captures(none) %1, ptr noundef readonly captures(none) %2, ptr noundef readonly captures(none) %3, i32 noundef %4) local_unnamed_addr #0 {
  %6 = getelementptr inbounds nuw i8, ptr %2, i64 8
  %7 = load i32, ptr %6, align 8
  %8 = icmp ult i32 %7, 4194304
  br i1 %8, label %9, label %14

9:                                                ; preds = %5
  %.not46 = icmp eq i32 %4, 0
  br i1 %.not46, label %12, label %10

10:                                               ; preds = %9
  %11 = tail call ptr @Abc_NtkCreateNodeConst0(ptr noundef %0) #7
  br label %84

12:                                               ; preds = %9
  %13 = tail call ptr @Abc_NtkCreateNodeConst1(ptr noundef %0) #7
  br label %84

14:                                               ; preds = %5
  %15 = tail call noalias dereferenceable_or_null(16) ptr @malloc(i64 noundef 16) #8
  %16 = getelementptr inbounds nuw i8, ptr %15, i64 4
  store i32 0, ptr %16, align 4, !tbaa !3
  store i32 16, ptr %15, align 8, !tbaa !10
  %17 = tail call noalias dereferenceable_or_null(64) ptr @malloc(i64 noundef 64) #8
  %18 = getelementptr inbounds nuw i8, ptr %15, i64 8
  store ptr %17, ptr %18, align 8, !tbaa !11
  tail call fastcc void @Min_CubeGetLits(ptr noundef nonnull %2, ptr noundef nonnull %15)
  %19 = load i32, ptr %6, align 8
  %.mask = and i32 %19, -4194304
  %20 = icmp eq i32 %.mask, 4194304
  br i1 %20, label %Vec_IntFree.exit, label %47

Vec_IntFree.exit:                                 ; preds = %14
  %.val = load ptr, ptr %18, align 8, !tbaa !11
  %21 = load i32, ptr %.val, align 4, !tbaa !12
  %22 = load ptr, ptr %1, align 8, !tbaa !13
  %23 = getelementptr i8, ptr %3, i64 8
  %.val47 = load ptr, ptr %23, align 8, !tbaa !11
  %24 = sext i32 %21 to i64
  %25 = getelementptr inbounds i32, ptr %.val47, i64 %24
  %26 = load i32, ptr %25, align 4, !tbaa !12
  %27 = getelementptr i8, ptr %22, i64 32
  %.val50 = load ptr, ptr %27, align 8, !tbaa !17
  %28 = getelementptr i8, ptr %.val50, i64 8
  %.val50.val = load ptr, ptr %28, align 8, !tbaa !31
  %29 = sext i32 %26 to i64
  %30 = getelementptr inbounds ptr, ptr %.val50.val, i64 %29
  %31 = load ptr, ptr %30, align 8, !tbaa !33
  %32 = getelementptr inbounds nuw i8, ptr %2, i64 12
  %33 = shl nsw i32 %21, 1
  %34 = ashr i32 %21, 4
  %35 = sext i32 %34 to i64
  %36 = getelementptr inbounds [1 x i32], ptr %32, i64 0, i64 %35
  %37 = load i32, ptr %36, align 4, !tbaa !12
  %38 = and i32 %33, 30
  %39 = lshr i32 %37, %38
  %40 = and i32 %39, 3
  tail call void @free(ptr noundef nonnull %.val) #7
  tail call void @free(ptr noundef nonnull %15) #7
  %41 = icmp eq i32 %40, 1
  %42 = zext i1 %41 to i32
  %.not45 = icmp eq i32 %4, %42
  %43 = getelementptr inbounds nuw i8, ptr %31, i64 64
  %44 = load ptr, ptr %43, align 8, !tbaa !34
  br i1 %.not45, label %84, label %45

45:                                               ; preds = %Vec_IntFree.exit
  %46 = tail call ptr @Abc_NtkCreateNodeInv(ptr noundef %0, ptr noundef %44) #7
  br label %84

47:                                               ; preds = %14
  %48 = tail call ptr @Abc_NtkCreateObj(ptr noundef %0, i32 noundef 7) #7
  %49 = load i32, ptr %16, align 4, !tbaa !3
  %50 = icmp sgt i32 %49, 0
  %.pre = load ptr, ptr %18, align 8, !tbaa !11
  br i1 %50, label %.lr.ph, label %._crit_edge

.lr.ph:                                           ; preds = %47
  %51 = getelementptr i8, ptr %3, i64 8
  %52 = getelementptr inbounds nuw i8, ptr %2, i64 12
  %wide.trip.count = zext nneg i32 %49 to i64
  br label %53

53:                                               ; preds = %.lr.ph, %53
  %indvars.iv = phi i64 [ 0, %.lr.ph ], [ %indvars.iv.next, %53 ]
  %54 = getelementptr inbounds nuw i32, ptr %.pre, i64 %indvars.iv
  %55 = load i32, ptr %54, align 4, !tbaa !12
  %56 = load ptr, ptr %1, align 8, !tbaa !13
  %.val49 = load ptr, ptr %51, align 8, !tbaa !11
  %57 = sext i32 %55 to i64
  %58 = getelementptr inbounds i32, ptr %.val49, i64 %57
  %59 = load i32, ptr %58, align 4, !tbaa !12
  %60 = getelementptr i8, ptr %56, i64 32
  %.val51 = load ptr, ptr %60, align 8, !tbaa !17
  %61 = getelementptr i8, ptr %.val51, i64 8
  %.val51.val = load ptr, ptr %61, align 8, !tbaa !31
  %62 = sext i32 %59 to i64
  %63 = getelementptr inbounds ptr, ptr %.val51.val, i64 %62
  %64 = load ptr, ptr %63, align 8, !tbaa !33
  %65 = shl nsw i32 %55, 1
  %66 = ashr i32 %55, 4
  %67 = sext i32 %66 to i64
  %68 = getelementptr inbounds [1 x i32], ptr %52, i64 0, i64 %67
  %69 = load i32, ptr %68, align 4, !tbaa !12
  %70 = and i32 %65, 30
  %71 = lshr i32 %69, %70
  %72 = and i32 %71, 3
  %73 = icmp eq i32 %72, 1
  %74 = zext i1 %73 to i32
  store i32 %74, ptr %54, align 4, !tbaa !12
  %75 = getelementptr inbounds nuw i8, ptr %64, i64 64
  %76 = load ptr, ptr %75, align 8, !tbaa !34
  tail call void @Abc_ObjAddFanin(ptr noundef %48, ptr noundef %76) #7
  %indvars.iv.next = add nuw nsw i64 %indvars.iv, 1
  %exitcond.not = icmp eq i64 %indvars.iv.next, %wide.trip.count
  br i1 %exitcond.not, label %._crit_edge, label %53, !llvm.loop !35

._crit_edge:                                      ; preds = %53, %47
  %77 = getelementptr inbounds nuw i8, ptr %0, i64 256
  %78 = load ptr, ptr %77, align 8, !tbaa !37
  %79 = tail call ptr @Abc_SopCreateAnd(ptr noundef %78, i32 noundef %49, ptr noundef %.pre) #7
  %80 = getelementptr inbounds nuw i8, ptr %48, i64 56
  store ptr %79, ptr %80, align 8, !tbaa !34
  %.not = icmp eq i32 %4, 0
  br i1 %.not, label %82, label %81

81:                                               ; preds = %._crit_edge
  tail call void @Abc_SopComplement(ptr noundef %79) #7
  br label %82

82:                                               ; preds = %81, %._crit_edge
  %.not.i53 = icmp eq ptr %.pre, null
  br i1 %.not.i53, label %Vec_IntFree.exit54, label %83

83:                                               ; preds = %82
  tail call void @free(ptr noundef nonnull %.pre) #7
  br label %Vec_IntFree.exit54

Vec_IntFree.exit54:                               ; preds = %82, %83
  tail call void @free(ptr noundef nonnull %15) #7
  br label %84

84:                                               ; preds = %Vec_IntFree.exit, %Vec_IntFree.exit54, %45, %12, %10
  %.043 = phi ptr [ %11, %10 ], [ %13, %12 ], [ %46, %45 ], [ %48, %Vec_IntFree.exit54 ], [ %44, %Vec_IntFree.exit ]
  ret ptr %.043
}